; Function Attrs: mustprogress uwtable
define internal void @_ZL46InitDefaultsscc_info_rect32_data_5fdef_2eprotov() #3 personality ptr @__gxx_personality_v0 {
entry:
  tail call void @_ZN6google8protobuf8internal13VerifyVersionEiiPKc(i32 noundef 3012004, i32 noundef 3012000, ptr noundef nonnull @.str.4)
  store ptr null, ptr getelementptr inbounds (%"class.mygame::rect32DefaultTypeInternal", ptr @_ZN6mygame25_rect32_default_instance_E, i64 0, i32 0, i32 0, i32 1, i64 0), align 8
  store ptr getelementptr inbounds ({ [22 x ptr] }, ptr @_ZTVN6mygame6rect32E, i64 0, i32 0, i64 2), ptr @_ZN6mygame25_rect32_default_instance_E, align 8
  tail call void @llvm.memset.p0.i64(ptr noundef nonnull align 8 dereferenceable(20) getelementptr inbounds (%"class.mygame::rect32DefaultTypeInternal", ptr @_ZN6mygame25_rect32_default_instance_E, i64 0, i32 0, i32 0, i32 1, i64 8), i8 0, i64 20, i1 false)
  tail call void @_ZN6google8protobuf8internal13OnShutdownRunEPFvPKvES3_(ptr noundef nonnull @_ZN6google8protobuf8internal14DestroyMessageEPKv, ptr noundef nonnull @_ZN6mygame25_rect32_default_instance_E)
  ret void
}